target datalayout = "e-m:e-p270:32:32-p271:32:32-p272:64:64-i64:64-i128:128-f80:128-n8:16:32:64-S128"
target triple = "x86_64-pc-linux-gnu"

%struct.MLZ = type { i32, i32, i32, i32, i32, i32, ptr, ptr }
%struct.MLZDict = type { i32, i32, i32, i32 }

@.str.3 = private unnamed_addr constant [19 x i8] c"MLZ offset error.\0A\00", align 1
@.str.4 = private unnamed_addr constant [22 x i8] c"MLZ dic index error.\0A\00", align 1
@.str.5 = private unnamed_addr constant [23 x i8] c"MLZ dic offset error.\0A\00", align 1

; Function Attrs: nounwind uwtable
define internal i32 @decode_string(ptr noundef %0, ptr noundef %1, i32 noundef %2, ptr noundef %3, i64 noundef %4) #3 {
  %6 = alloca i32, align 4
  %7 = alloca ptr, align 8
  %8 = alloca ptr, align 8
  %9 = alloca i32, align 4
  %10 = alloca ptr, align 8
  %11 = alloca i64, align 8
  %12 = alloca ptr, align 8
  %13 = alloca i64, align 8
  %14 = alloca i64, align 8
  %15 = alloca i32, align 4
  %16 = alloca i32, align 4
  %17 = alloca i32, align 4
  %18 = alloca i32, align 4
  store ptr %0, ptr %7, align 8, !tbaa !8
  store ptr %1, ptr %8, align 8, !tbaa !31
  store i32 %2, ptr %9, align 4, !tbaa !22
  store ptr %3, ptr %10, align 8, !tbaa !37
  store i64 %4, ptr %11, align 8, !tbaa !33
  call void @llvm.lifetime.start.p0(i64 8, ptr %12) #5
  %19 = load ptr, ptr %7, align 8, !tbaa !8
  %20 = getelementptr inbounds nuw %struct.MLZ, ptr %19, i32 0, i32 6
  %21 = load ptr, ptr %20, align 8, !tbaa !10
  store ptr %21, ptr %12, align 8, !tbaa !21
  call void @llvm.lifetime.start.p0(i64 8, ptr %13) #5
  call void @llvm.lifetime.start.p0(i64 8, ptr %14) #5
  call void @llvm.lifetime.start.p0(i64 4, ptr %15) #5
  call void @llvm.lifetime.start.p0(i64 4, ptr %16) #5
  call void @llvm.lifetime.start.p0(i64 4, ptr %17) #5
  store i64 0, ptr %13, align 8, !tbaa !33
  %22 = load i32, ptr %9, align 4, !tbaa !22
  store i32 %22, ptr %15, align 4, !tbaa !22
  %23 = load ptr, ptr %10, align 8, !tbaa !37
  store i32 -1, ptr %23, align 4, !tbaa !22
  br label %24

24:                                               ; preds = %137, %5
  %25 = load i64, ptr %13, align 8, !tbaa !33
  %26 = load i64, ptr %11, align 8, !tbaa !33
  %27 = icmp ult i64 %25, %26
  br i1 %27, label %28, label %138

28:                                               ; preds = %24
  %29 = load i32, ptr %15, align 4, !tbaa !22
  switch i32 %29, label %33 [
    i32 -1, label %30
  ]

30:                                               ; preds = %28
  %31 = load i64, ptr %13, align 8, !tbaa !33
  %32 = trunc i64 %31 to i32
  store i32 %32, ptr %6, align 4
  store i32 1, ptr %18, align 4
  br label %141

33:                                               ; preds = %28
  %34 = load i32, ptr %15, align 4, !tbaa !22
  %35 = icmp slt i32 %34, 258
  br i1 %35, label %36, label %47

36:                                               ; preds = %33
  %37 = load i32, ptr %15, align 4, !tbaa !22
  %38 = load ptr, ptr %10, align 8, !tbaa !37
  store i32 %37, ptr %38, align 4, !tbaa !22
  %39 = load i32, ptr %15, align 4, !tbaa !22
  %40 = trunc i32 %39 to i8
  %41 = load ptr, ptr %8, align 8, !tbaa !31
  %42 = getelementptr inbounds i8, ptr %41, i64 0
  store i8 %40, ptr %42, align 1, !tbaa !39
  %43 = load i64, ptr %13, align 8, !tbaa !33
  %44 = add i64 %43, 1
  store i64 %44, ptr %13, align 8, !tbaa !33
  %45 = load i64, ptr %13, align 8, !tbaa !33
  %46 = trunc i64 %45 to i32
  store i32 %46, ptr %6, align 4
  store i32 1, ptr %18, align 4
  br label %141

47:                                               ; preds = %33
  %48 = load ptr, ptr %12, align 8, !tbaa !21
  %49 = load i32, ptr %15, align 4, !tbaa !22
  %50 = sext i32 %49 to i64
  %51 = getelementptr inbounds %struct.MLZDict, ptr %48, i64 %50
  %52 = getelementptr inbounds nuw %struct.MLZDict, ptr %51, i32 0, i32 3
  %53 = load i32, ptr %52, align 4, !tbaa !26
  %54 = sub nsw i32 %53, 1
  %55 = sext i32 %54 to i64
  store i64 %55, ptr %14, align 8, !tbaa !33
  %56 = load ptr, ptr %12, align 8, !tbaa !21
  %57 = load i32, ptr %15, align 4, !tbaa !22
  %58 = sext i32 %57 to i64
  %59 = getelementptr inbounds %struct.MLZDict, ptr %56, i64 %58
  %60 = getelementptr inbounds nuw %struct.MLZDict, ptr %59, i32 0, i32 2
  %61 = load i32, ptr %60, align 4, !tbaa !40
  store i32 %61, ptr %17, align 4, !tbaa !22
  %62 = load i64, ptr %14, align 8, !tbaa !33
  %63 = load i64, ptr %11, align 8, !tbaa !33
  %64 = icmp uge i64 %62, %63
  br i1 %64, label %65, label %71

65:                                               ; preds = %47
  %66 = load ptr, ptr %7, align 8, !tbaa !8
  %67 = getelementptr inbounds nuw %struct.MLZ, ptr %66, i32 0, i32 7
  %68 = load ptr, ptr %67, align 8, !tbaa !20
  call void (ptr, i32, ptr, ...) @av_log(ptr noundef %68, i32 noundef 16, ptr noundef @.str.3)
  %69 = load i64, ptr %13, align 8, !tbaa !33
  %70 = trunc i64 %69 to i32
  store i32 %70, ptr %6, align 4
  store i32 1, ptr %18, align 4
  br label %141

71:                                               ; preds = %47
  %72 = load i32, ptr %17, align 4, !tbaa !22
  %73 = trunc i32 %72 to i8
  %74 = load ptr, ptr %8, align 8, !tbaa !31
  %75 = load i64, ptr %14, align 8, !tbaa !33
  %76 = getelementptr inbounds nuw i8, ptr %74, i64 %75
  store i8 %73, ptr %76, align 1, !tbaa !39
  %77 = load i64, ptr %13, align 8, !tbaa !33
  %78 = add i64 %77, 1
  store i64 %78, ptr %13, align 8, !tbaa !33
  br label %79

79:                                               ; preds = %71
  %80 = load ptr, ptr %12, align 8, !tbaa !21
  %81 = load i32, ptr %15, align 4, !tbaa !22
  %82 = sext i32 %81 to i64
  %83 = getelementptr inbounds %struct.MLZDict, ptr %80, i64 %82
  %84 = getelementptr inbounds nuw %struct.MLZDict, ptr %83, i32 0, i32 1
  %85 = load i32, ptr %84, align 4, !tbaa !25
  store i32 %85, ptr %15, align 4, !tbaa !22
  %86 = load i32, ptr %15, align 4, !tbaa !22
  %87 = icmp slt i32 %86, 0
  br i1 %87, label %91, label %88

88:                                               ; preds = %79
  %89 = load i32, ptr %15, align 4, !tbaa !22
  %90 = icmp sgt i32 %89, 32767
  br i1 %90, label %91, label %97

91:                                               ; preds = %88, %79
  %92 = load ptr, ptr %7, align 8, !tbaa !8
  %93 = getelementptr inbounds nuw %struct.MLZ, ptr %92, i32 0, i32 7
  %94 = load ptr, ptr %93, align 8, !tbaa !20
  call void (ptr, i32, ptr, ...) @av_log(ptr noundef %94, i32 noundef 16, ptr noundef @.str.4)
  %95 = load i64, ptr %13, align 8, !tbaa !33
  %96 = trunc i64 %95 to i32
  store i32 %96, ptr %6, align 4
  store i32 1, ptr %18, align 4
  br label %141

97:                                               ; preds = %88
  %98 = load i32, ptr %15, align 4, !tbaa !22
  %99 = icmp sgt i32 %98, 258
  br i1 %99, label %100, label %136

100:                                              ; preds = %97
  %101 = load ptr, ptr %12, align 8, !tbaa !21
  %102 = load i32, ptr %15, align 4, !tbaa !22
  %103 = sext i32 %102 to i64
  %104 = getelementptr inbounds %struct.MLZDict, ptr %101, i64 %103
  %105 = getelementptr inbounds nuw %struct.MLZDict, ptr %104, i32 0, i32 1
  %106 = load i32, ptr %105, align 4, !tbaa !25
  store i32 %106, ptr %16, align 4, !tbaa !22
  %107 = load ptr, ptr %12, align 8, !tbaa !21
  %108 = load i32, ptr %15, align 4, !tbaa !22
  %109 = sext i32 %108 to i64
  %110 = getelementptr inbounds %struct.MLZDict, ptr %107, i64 %109
  %111 = getelementptr inbounds nuw %struct.MLZDict, ptr %110, i32 0, i32 3
  %112 = load i32, ptr %111, align 4, !tbaa !26
  %113 = sub nsw i32 %112, 1
  %114 = sext i32 %113 to i64
  store i64 %114, ptr %14, align 8, !tbaa !33
  %115 = load i32, ptr %16, align 4, !tbaa !22
  %116 = icmp slt i32 %115, 0
  br i1 %116, label %120, label %117

117:                                              ; preds = %100
  %118 = load i32, ptr %16, align 4, !tbaa !22
  %119 = icmp sgt i32 %118, 32767
  br i1 %119, label %120, label %126

120:                                              ; preds = %117, %100
  %121 = load ptr, ptr %7, align 8, !tbaa !8
  %122 = getelementptr inbounds nuw %struct.MLZ, ptr %121, i32 0, i32 7
  %123 = load ptr, ptr %122, align 8, !tbaa !20
  call void (ptr, i32, ptr, ...) @av_log(ptr noundef %123, i32 noundef 16, ptr noundef @.str.4)
  %124 = load i64, ptr %13, align 8, !tbaa !33
  %125 = trunc i64 %124 to i32
  store i32 %125, ptr %6, align 4
  store i32 1, ptr %18, align 4
  br label %141

126:                                              ; preds = %117
  %127 = load i64, ptr %14, align 8, !tbaa !33
  %128 = icmp ugt i64 %127, 32767
  br i1 %128, label %129, label %135

129:                                              ; preds = %126
  %130 = load ptr, ptr %7, align 8, !tbaa !8
  %131 = getelementptr inbounds nuw %struct.MLZ, ptr %130, i32 0, i32 7
  %132 = load ptr, ptr %131, align 8, !tbaa !20
  call void (ptr, i32, ptr, ...) @av_log(ptr noundef %132, i32 noundef 16, ptr noundef @.str.5)
  %133 = load i64, ptr %13, align 8, !tbaa !33
  %134 = trunc i64 %133 to i32
  store i32 %134, ptr %6, align 4
  store i32 1, ptr %18, align 4
  br label %141

135:                                              ; preds = %126
  br label %136

136:                                              ; preds = %135, %97
  br label %137

137:                                              ; preds = %136
  br label %24, !llvm.loop !41

138:                                              ; preds = %24
  %139 = load i64, ptr %13, align 8, !tbaa !33
  %140 = trunc i64 %139 to i32
  store i32 %140, ptr %6, align 4
  store i32 1, ptr %18, align 4
  br label %141

141:                                              ; preds = %138, %129, %120, %91, %65, %36, %30
  call void @llvm.lifetime.end.p0(i64 4, ptr %17) #5
  call void @llvm.lifetime.end.p0(i64 4, ptr %16) #5
  call void @llvm.lifetime.end.p0(i64 4, ptr %15) #5
  call void @llvm.lifetime.end.p0(i64 8, ptr %14) #5
  call void @llvm.lifetime.end.p0(i64 8, ptr %13) #5
  call void @llvm.lifetime.end.p0(i64 8, ptr %12) #5
  %142 = load i32, ptr %6, align 4
  ret i32 %142
}