; Function Attrs: nounwind uwtable
define internal fastcc i32 @decode_string(ptr noundef readonly captures(none) %0, ptr noundef writeonly captures(none) %1, i32 noundef %2, ptr noundef nonnull writeonly captures(none) initializes((0, 4)) %3, i64 noundef %4) unnamed_addr #4 {
  %6 = getelementptr inbounds nuw i8, ptr %0, i64 24
  %7 = load ptr, ptr %6, align 8, !tbaa !4
  store i32 -1, ptr %3, align 4, !tbaa !24
  %.not69 = icmp eq i64 %4, 0
  br i1 %.not69, label %._crit_edge, label %.lr.ph

.lr.ph:                                           ; preds = %5, %59
  %.04868 = phi i64 [ %32, %59 ], [ 0, %5 ]
  %.04967 = phi i32 [ %34, %59 ], [ %2, %5 ]
  %cond = icmp eq i32 %.04967, -1
  br i1 %cond, label %8, label %10

8:                                                ; preds = %.lr.ph
  %9 = trunc i64 %.04868 to i32
  br label %._crit_edge

10:                                               ; preds = %.lr.ph
  %11 = icmp slt i32 %.04967, 258
  br i1 %11, label %12, label %16

12:                                               ; preds = %10
  store i32 %.04967, ptr %3, align 4, !tbaa !24
  %13 = trunc i32 %.04967 to i8
  store i8 %13, ptr %1, align 1, !tbaa !30
  %14 = trunc i64 %.04868 to i32
  %15 = add i32 %14, 1
  br label %._crit_edge

16:                                               ; preds = %10
  %17 = zext nneg i32 %.04967 to i64
  %18 = getelementptr inbounds nuw %struct.MLZDict, ptr %7, i64 %17
  %19 = getelementptr inbounds nuw i8, ptr %18, i64 12
  %20 = load i32, ptr %19, align 4, !tbaa !21
  %21 = add nsw i32 %20, -1
  %22 = sext i32 %21 to i64
  %.not = icmp ugt i64 %4, %22
  br i1 %.not, label %27, label %23

23:                                               ; preds = %16
  %24 = getelementptr inbounds nuw i8, ptr %0, i64 32
  %25 = load ptr, ptr %24, align 8, !tbaa !17
  tail call void (ptr, i32, ptr, ...) @av_log(ptr noundef %25, i32 noundef 16, ptr noundef nonnull @.str.3) #5
  %26 = trunc i64 %.04868 to i32
  br label %._crit_edge

27:                                               ; preds = %16
  %28 = getelementptr inbounds nuw i8, ptr %18, i64 8
  %29 = load i32, ptr %28, align 4, !tbaa !32
  %30 = trunc i32 %29 to i8
  %31 = getelementptr inbounds nuw i8, ptr %1, i64 %22
  store i8 %30, ptr %31, align 1, !tbaa !30
  %32 = add nuw i64 %.04868, 1
  %33 = getelementptr inbounds nuw i8, ptr %18, i64 4
  %34 = load i32, ptr %33, align 4, !tbaa !20
  %or.cond = icmp ugt i32 %34, 32767
  br i1 %or.cond, label %35, label %39

35:                                               ; preds = %27
  %36 = getelementptr inbounds nuw i8, ptr %0, i64 32
  %37 = load ptr, ptr %36, align 8, !tbaa !17
  tail call void (ptr, i32, ptr, ...) @av_log(ptr noundef %37, i32 noundef 16, ptr noundef nonnull @.str.4) #5
  %38 = trunc i64 %32 to i32
  br label %._crit_edge

39:                                               ; preds = %27
  %40 = icmp samesign ugt i32 %34, 258
  br i1 %40, label %41, label %59

41:                                               ; preds = %39
  %42 = zext nneg i32 %34 to i64
  %43 = getelementptr inbounds nuw %struct.MLZDict, ptr %7, i64 %42
  %44 = getelementptr inbounds nuw i8, ptr %43, i64 4
  %45 = load i32, ptr %44, align 4, !tbaa !20
  %or.cond3 = icmp ugt i32 %45, 32767
  br i1 %or.cond3, label %46, label %50

46:                                               ; preds = %41
  %47 = getelementptr inbounds nuw i8, ptr %0, i64 32
  %48 = load ptr, ptr %47, align 8, !tbaa !17
  tail call void (ptr, i32, ptr, ...) @av_log(ptr noundef %48, i32 noundef 16, ptr noundef nonnull @.str.4) #5
  %49 = trunc i64 %32 to i32
  br label %._crit_edge

50:                                               ; preds = %41
  %51 = getelementptr inbounds nuw i8, ptr %43, i64 12
  %52 = load i32, ptr %51, align 4, !tbaa !21
  %53 = add i32 %52, -32769
  %54 = icmp ult i32 %53, -32768
  br i1 %54, label %55, label %59

55:                                               ; preds = %50
  %56 = getelementptr inbounds nuw i8, ptr %0, i64 32
  %57 = load ptr, ptr %56, align 8, !tbaa !17
  tail call void (ptr, i32, ptr, ...) @av_log(ptr noundef %57, i32 noundef 16, ptr noundef nonnull @.str.5) #5
  %58 = trunc i64 %32 to i32
  br label %._crit_edge

59:                                               ; preds = %39, %50
  %exitcond.not = icmp eq i64 %32, %4
  br i1 %exitcond.not, label %._crit_edge.loopexit, label %.lr.ph, !llvm.loop !34

._crit_edge.loopexit:                             ; preds = %59
  %60 = trunc i64 %4 to i32
  br label %._crit_edge

._crit_edge:                                      ; preds = %5, %._crit_edge.loopexit, %55, %46, %35, %23, %12, %8
  %.0 = phi i32 [ %9, %8 ], [ %15, %12 ], [ %26, %23 ], [ %38, %35 ], [ %49, %46 ], [ %58, %55 ], [ 0, %5 ], [ %60, %._crit_edge.loopexit ]
  ret i32 %.0
}